target datalayout = "e-m:e-p270:32:32-p271:32:32-p272:64:64-i64:64-i128:128-f80:128-n8:16:32:64-S128"
target triple = "x86_64-pc-linux-gnu"

%struct._zend_phar_globals = type { %struct._zend_array, %struct._zend_array, ptr, %struct._zend_array, i32, ptr, i8, i8, i8, i8, i8, i8, i8, i8, i8, i8, i8, i8, ptr, ptr, ptr, ptr, ptr, ptr, ptr, ptr, ptr, ptr, ptr, ptr, ptr, ptr, ptr, ptr, ptr, ptr, ptr, ptr, ptr, ptr, ptr, i32, i8, ptr, i32, ptr, i32, ptr, i32, ptr, %struct._zend_array }
%struct._zend_array = type { %struct._zend_refcounted_h, %union.anon.0, i32, %union.anon.1, i32, i32, i32, i32, i64, ptr }
%struct._zend_refcounted_h = type { i32, %union.anon }
%union.anon = type { i32 }
%union.anon.0 = type { i32 }
%union.anon.1 = type { ptr }
%struct._zval_struct = type { %union._zend_value, %union.anon.3, %union.anon.6 }
%union._zend_value = type { i64 }
%union.anon.3 = type { i32 }
%union.anon.6 = type { i32 }
%struct._zend_execute_data = type { ptr, ptr, ptr, ptr, %struct._zval_struct, ptr, ptr, ptr, ptr }
%struct._zend_string = type { %struct._zend_refcounted_h, i64, i64, [1 x i8] }
%struct._phar_archive_data = type { ptr, i32, ptr, i32, ptr, i32, [12 x i8], i64, %struct._zend_array, %struct._zend_array, %struct._zend_array, i32, i32, i32, ptr, ptr, i32, i32, i32, ptr, %struct._phar_metadata_tracker, i32, i16 }
%struct._phar_metadata_tracker = type { %struct._zval_struct, ptr }
%struct._phar_entry_info = type { i32, i32, i32, i32, i32, i32, %struct._phar_metadata_tracker, ptr, i32, i64, i64, i64, ptr, ptr, i32, ptr, ptr, ptr, i8, i32, i16, i16 }

@phar_globals = external global %struct._zend_phar_globals, align 8
@cached_phars = external global %struct._zend_array, align 8
@.str.1 = private unnamed_addr constant [4 x i8] c"://\00", align 1
@.str.2 = private unnamed_addr constant [8 x i8] c"phar://\00", align 1
@.str.12 = private unnamed_addr constant [2 x i8] c"p\00", align 1

; Function Attrs: alwaysinline nounwind uwtable
define internal ptr @zend_hash_str_find_ptr(ptr noundef %0, ptr noundef %1, i64 noundef %2) #2 {
  %4 = alloca ptr, align 8
  %5 = alloca ptr, align 8
  %6 = alloca ptr, align 8
  %7 = alloca i64, align 8
  %8 = alloca ptr, align 8
  %9 = alloca i32, align 4
  store ptr %0, ptr %5, align 8, !tbaa !74
  store ptr %1, ptr %6, align 8, !tbaa !51
  store i64 %2, ptr %7, align 8, !tbaa !57
  call void @llvm.lifetime.start.p0(i64 8, ptr %8) #11
  %10 = load ptr, ptr %5, align 8, !tbaa !74
  %11 = load ptr, ptr %6, align 8, !tbaa !51
  %12 = load i64, ptr %7, align 8, !tbaa !57
  %13 = call ptr @zend_hash_str_find(ptr noundef %10, ptr noundef %11, i64 noundef %12)
  store ptr %13, ptr %8, align 8, !tbaa !9
  %14 = load ptr, ptr %8, align 8, !tbaa !9
  %15 = icmp ne ptr %14, null
  br i1 %15, label %16, label %24

16:                                               ; preds = %3
  %17 = load ptr, ptr %8, align 8, !tbaa !9
  %18 = getelementptr inbounds nuw %struct._zval_struct, ptr %17, i32 0, i32 0
  %19 = load ptr, ptr %18, align 8, !tbaa !23
  %20 = icmp ne ptr %19, null
  call void @llvm.assume(i1 %20)
  %21 = load ptr, ptr %8, align 8, !tbaa !9
  %22 = getelementptr inbounds nuw %struct._zval_struct, ptr %21, i32 0, i32 0
  %23 = load ptr, ptr %22, align 8, !tbaa !23
  store ptr %23, ptr %4, align 8
  store i32 1, ptr %9, align 4
  br label %25

24:                                               ; preds = %3
  store ptr null, ptr %4, align 8
  store i32 1, ptr %9, align 4
  br label %25

25:                                               ; preds = %24, %16
  call void @llvm.lifetime.end.p0(i64 8, ptr %8) #11
  %26 = load ptr, ptr %4, align 8
  ret ptr %26
}

; Function Attrs: alwaysinline nounwind uwtable
define internal zeroext i1 @zend_string_starts_with_cstr_ci(ptr noundef %0, ptr noundef %1, i64 noundef %2) #2 {
  %4 = alloca ptr, align 8
  %5 = alloca ptr, align 8
  %6 = alloca i64, align 8
  store ptr %0, ptr %4, align 8, !tbaa !52
  store ptr %1, ptr %5, align 8, !tbaa !51
  store i64 %2, ptr %6, align 8, !tbaa !57
  %7 = load ptr, ptr %4, align 8, !tbaa !52
  %8 = getelementptr inbounds nuw %struct._zend_string, ptr %7, i32 0, i32 2
  %9 = load i64, ptr %8, align 8, !tbaa !53
  %10 = load i64, ptr %6, align 8, !tbaa !57
  %11 = icmp uge i64 %9, %10
  br i1 %11, label %12, label %21

12:                                               ; preds = %3
  %13 = load ptr, ptr %4, align 8, !tbaa !52
  %14 = getelementptr inbounds nuw %struct._zend_string, ptr %13, i32 0, i32 3
  %15 = getelementptr inbounds [1 x i8], ptr %14, i64 0, i64 0
  %16 = load ptr, ptr %5, align 8, !tbaa !51
  %17 = load i64, ptr %6, align 8, !tbaa !57
  %18 = call i32 @strncasecmp(ptr noundef %15, ptr noundef %16, i64 noundef %17) #12
  %19 = icmp ne i32 %18, 0
  %20 = xor i1 %19, true
  br label %21

21:                                               ; preds = %12, %3
  %22 = phi i1 [ false, %3 ], [ %20, %12 ]
  ret i1 %22
}

; Function Attrs: alwaysinline nounwind uwtable
define internal i32 @zend_hash_num_elements(ptr noundef %0) #2 {
  %2 = alloca ptr, align 8
  store ptr %0, ptr %2, align 8, !tbaa !74
  %3 = load ptr, ptr %2, align 8, !tbaa !74
  %4 = getelementptr inbounds nuw %struct._zend_array, ptr %3, i32 0, i32 5
  %5 = load i32, ptr %4, align 4, !tbaa !75
  ret i32 %5
}

; Function Attrs: nounwind uwtable
define hidden void @zif_phar_is_file(ptr noundef %0, ptr noundef %1) #0 {
  %3 = alloca ptr, align 8
  %4 = alloca ptr, align 8
  %5 = alloca ptr, align 8
  %6 = alloca i64, align 8
  %7 = alloca ptr, align 8
  %8 = alloca ptr, align 8
  %9 = alloca i64, align 8
  %10 = alloca i64, align 8
  %11 = alloca ptr, align 8
  %12 = alloca ptr, align 8
  %13 = alloca ptr, align 8
  %14 = alloca i32, align 4
  store ptr %0, ptr %3, align 8, !tbaa !4
  store ptr %1, ptr %4, align 8, !tbaa !9
  call void @llvm.lifetime.start.p0(i64 8, ptr %5) #11
  call void @llvm.lifetime.start.p0(i64 8, ptr %6) #11
  %15 = load i8, ptr getelementptr inbounds nuw (%struct._zend_phar_globals, ptr @phar_globals, i32 0, i32 13), align 1, !tbaa !11, !range !21, !noundef !22
  %16 = trunc i8 %15 to i1
  br i1 %16, label %18, label %17

17:                                               ; preds = %2
  br label %151

18:                                               ; preds = %2
  %19 = load i32, ptr getelementptr inbounds nuw (%struct._zend_array, ptr getelementptr inbounds nuw (%struct._zend_phar_globals, ptr @phar_globals, i32 0, i32 1), i32 0, i32 1), align 8, !tbaa !23
  %20 = and i32 %19, 8
  %21 = icmp eq i32 %20, 0
  br i1 %21, label %22, label %30

22:                                               ; preds = %18
  %23 = call i32 @zend_hash_num_elements(ptr noundef getelementptr inbounds nuw (%struct._zend_phar_globals, ptr @phar_globals, i32 0, i32 1))
  %24 = icmp ne i32 %23, 0
  br i1 %24, label %30, label %25

25:                                               ; preds = %22
  %26 = load i32, ptr getelementptr inbounds nuw (%struct._zend_array, ptr @cached_phars, i32 0, i32 1), align 8, !tbaa !23
  %27 = and i32 %26, 8
  %28 = icmp eq i32 %27, 0
  br i1 %28, label %30, label %29

29:                                               ; preds = %25
  br label %151

30:                                               ; preds = %25, %22, %18
  %31 = load ptr, ptr %3, align 8, !tbaa !4
  %32 = getelementptr inbounds nuw %struct._zend_execute_data, ptr %31, i32 0, i32 4
  %33 = getelementptr inbounds nuw %struct._zval_struct, ptr %32, i32 0, i32 2
  %34 = load i32, ptr %33, align 4, !tbaa !23
  %35 = call i32 (i32, i32, ptr, ...) @zend_parse_parameters_ex(i32 noundef 2, i32 noundef %34, ptr noundef @.str.12, ptr noundef %5, ptr noundef %6)
  %36 = icmp eq i32 %35, -1
  br i1 %36, label %37, label %38

37:                                               ; preds = %30
  br label %151

38:                                               ; preds = %30
  %39 = load ptr, ptr %5, align 8, !tbaa !51
  %40 = getelementptr inbounds i8, ptr %39, i64 0
  %41 = load i8, ptr %40, align 1, !tbaa !23
  %42 = sext i8 %41 to i32
  %43 = icmp eq i32 %42, 47
  br i1 %43, label %150, label %44

44:                                               ; preds = %38
  %45 = load ptr, ptr %5, align 8, !tbaa !51
  %46 = call ptr @strstr(ptr noundef %45, ptr noundef @.str.1) #12
  %47 = icmp ne ptr %46, null
  br i1 %47, label %150, label %48

48:                                               ; preds = %44
  call void @llvm.lifetime.start.p0(i64 8, ptr %7) #11
  call void @llvm.lifetime.start.p0(i64 8, ptr %8) #11
  call void @llvm.lifetime.start.p0(i64 8, ptr %9) #11
  call void @llvm.lifetime.start.p0(i64 8, ptr %10) #11
  call void @llvm.lifetime.start.p0(i64 8, ptr %11) #11
  %49 = call ptr @zend_get_executed_filename_ex()
  store ptr %49, ptr %11, align 8, !tbaa !52
  %50 = load ptr, ptr %11, align 8, !tbaa !52
  %51 = icmp ne ptr %50, null
  br i1 %51, label %52, label %55

52:                                               ; preds = %48
  %53 = load ptr, ptr %11, align 8, !tbaa !52
  %54 = call zeroext i1 @zend_string_starts_with_cstr_ci(ptr noundef %53, ptr noundef @.str.2, i64 noundef 7)
  br i1 %54, label %56, label %55

55:                                               ; preds = %52, %48
  store i32 2, ptr %14, align 4
  br label %147

56:                                               ; preds = %52
  %57 = load ptr, ptr %11, align 8, !tbaa !52
  %58 = getelementptr inbounds nuw %struct._zend_string, ptr %57, i32 0, i32 3
  %59 = getelementptr inbounds [1 x i8], ptr %58, i64 0, i64 0
  %60 = load ptr, ptr %11, align 8, !tbaa !52
  %61 = getelementptr inbounds nuw %struct._zend_string, ptr %60, i32 0, i32 2
  %62 = load i64, ptr %61, align 8, !tbaa !53
  %63 = call i32 @phar_split_fname(ptr noundef %59, i64 noundef %62, ptr noundef %7, ptr noundef %9, ptr noundef %8, ptr noundef %10, i32 noundef 2, i32 noundef 0)
  %64 = icmp eq i32 0, %63
  br i1 %64, label %65, label %146

65:                                               ; preds = %56
  call void @llvm.lifetime.start.p0(i64 8, ptr %12) #11
  %66 = load ptr, ptr %8, align 8, !tbaa !51
  call void @_efree(ptr noundef %66)
  %67 = load ptr, ptr %5, align 8, !tbaa !51
  store ptr %67, ptr %8, align 8, !tbaa !51
  %68 = load i64, ptr %6, align 8, !tbaa !57
  store i64 %68, ptr %10, align 8, !tbaa !57
  %69 = load ptr, ptr %7, align 8, !tbaa !51
  %70 = load i64, ptr %9, align 8, !tbaa !57
  %71 = call i32 @phar_get_archive(ptr noundef %12, ptr noundef %69, i64 noundef %70, ptr noundef null, i64 noundef 0, ptr noundef null)
  %72 = icmp eq i32 0, %71
  br i1 %72, label %73, label %127

73:                                               ; preds = %65
  call void @llvm.lifetime.start.p0(i64 8, ptr %13) #11
  %74 = load ptr, ptr %8, align 8, !tbaa !51
  %75 = load i64, ptr %10, align 8, !tbaa !57
  %76 = call noalias ptr @_estrndup(ptr noundef %74, i64 noundef %75)
  %77 = call ptr @phar_fix_filepath(ptr noundef %76, ptr noundef %10, i32 noundef 1)
  store ptr %77, ptr %8, align 8, !tbaa !51
  %78 = load ptr, ptr %8, align 8, !tbaa !51
  %79 = getelementptr inbounds i8, ptr %78, i64 0
  %80 = load i8, ptr %79, align 1, !tbaa !23
  %81 = sext i8 %80 to i32
  %82 = icmp eq i32 %81, 47
  br i1 %82, label %83, label %114

83:                                               ; preds = %73
  %84 = load ptr, ptr %12, align 8, !tbaa !78
  %85 = getelementptr inbounds nuw %struct._phar_archive_data, ptr %84, i32 0, i32 8
  %86 = load ptr, ptr %8, align 8, !tbaa !51
  %87 = getelementptr inbounds i8, ptr %86, i64 1
  %88 = load i64, ptr %10, align 8, !tbaa !57
  %89 = sub i64 %88, 1
  %90 = call ptr @zend_hash_str_find_ptr(ptr noundef %85, ptr noundef %87, i64 noundef %89)
  store ptr %90, ptr %13, align 8, !tbaa !84
  %91 = icmp ne ptr null, %90
  br i1 %91, label %92, label %113

92:                                               ; preds = %83
  br label %93

93:                                               ; preds = %121, %92
  %94 = load ptr, ptr %8, align 8, !tbaa !51
  call void @_efree(ptr noundef %94)
  %95 = load ptr, ptr %7, align 8, !tbaa !51
  call void @_efree(ptr noundef %95)
  br label %96

96:                                               ; preds = %93
  br label %97

97:                                               ; preds = %96
  %98 = load ptr, ptr %13, align 8, !tbaa !84
  %99 = getelementptr inbounds nuw %struct._phar_entry_info, ptr %98, i32 0, i32 21
  %100 = load i16, ptr %99, align 2
  %101 = lshr i16 %100, 3
  %102 = and i16 %101, 1
  %103 = zext i16 %102 to i32
  %104 = icmp ne i32 %103, 0
  %105 = xor i1 %104, true
  %106 = select i1 %105, i32 3, i32 2
  %107 = load ptr, ptr %4, align 8, !tbaa !9
  %108 = getelementptr inbounds nuw %struct._zval_struct, ptr %107, i32 0, i32 1
  store i32 %106, ptr %108, align 8, !tbaa !23
  br label %109

109:                                              ; preds = %97
  br label %110

110:                                              ; preds = %109
  store i32 1, ptr %14, align 4
  br label %124

111:                                              ; No predecessors!
  br label %112

112:                                              ; preds = %111
  br label %113

113:                                              ; preds = %112, %83
  br label %123

114:                                              ; preds = %73
  %115 = load ptr, ptr %12, align 8, !tbaa !78
  %116 = getelementptr inbounds nuw %struct._phar_archive_data, ptr %115, i32 0, i32 8
  %117 = load ptr, ptr %8, align 8, !tbaa !51
  %118 = load i64, ptr %10, align 8, !tbaa !57
  %119 = call ptr @zend_hash_str_find_ptr(ptr noundef %116, ptr noundef %117, i64 noundef %118)
  store ptr %119, ptr %13, align 8, !tbaa !84
  %120 = icmp ne ptr null, %119
  br i1 %120, label %121, label %122

121:                                              ; preds = %114
  br label %93

122:                                              ; preds = %114
  br label %123

123:                                              ; preds = %122, %113
  store i32 0, ptr %14, align 4
  br label %124

124:                                              ; preds = %123, %110
  call void @llvm.lifetime.end.p0(i64 8, ptr %13) #11
  %125 = load i32, ptr %14, align 4
  switch i32 %125, label %143 [
    i32 0, label %126
  ]

126:                                              ; preds = %124
  br label %127

127:                                              ; preds = %126, %65
  %128 = load ptr, ptr %8, align 8, !tbaa !51
  %129 = load ptr, ptr %5, align 8, !tbaa !51
  %130 = icmp ne ptr %128, %129
  br i1 %130, label %131, label %133

131:                                              ; preds = %127
  %132 = load ptr, ptr %8, align 8, !tbaa !51
  call void @_efree(ptr noundef %132)
  br label %133

133:                                              ; preds = %131, %127
  %134 = load ptr, ptr %7, align 8, !tbaa !51
  call void @_efree(ptr noundef %134)
  br label %135

135:                                              ; preds = %133
  br label %136

136:                                              ; preds = %135
  %137 = load ptr, ptr %4, align 8, !tbaa !9
  %138 = getelementptr inbounds nuw %struct._zval_struct, ptr %137, i32 0, i32 1
  store i32 2, ptr %138, align 8, !tbaa !23
  br label %139

139:                                              ; preds = %136
  br label %140

140:                                              ; preds = %139
  store i32 1, ptr %14, align 4
  br label %143

141:                                              ; No predecessors!
  br label %142

142:                                              ; preds = %141
  store i32 0, ptr %14, align 4
  br label %143

143:                                              ; preds = %142, %140, %124
  call void @llvm.lifetime.end.p0(i64 8, ptr %12) #11
  %144 = load i32, ptr %14, align 4
  switch i32 %144, label %147 [
    i32 0, label %145
  ]

145:                                              ; preds = %143
  br label %146

146:                                              ; preds = %145, %56
  store i32 0, ptr %14, align 4
  br label %147

147:                                              ; preds = %55, %146, %143
  call void @llvm.lifetime.end.p0(i64 8, ptr %11) #11
  call void @llvm.lifetime.end.p0(i64 8, ptr %10) #11
  call void @llvm.lifetime.end.p0(i64 8, ptr %9) #11
  call void @llvm.lifetime.end.p0(i64 8, ptr %8) #11
  call void @llvm.lifetime.end.p0(i64 8, ptr %7) #11
  %148 = load i32, ptr %14, align 4
  switch i32 %148, label %155 [
    i32 0, label %149
    i32 2, label %151
  ]

149:                                              ; preds = %147
  br label %150

150:                                              ; preds = %149, %44, %38
  br label %151

151:                                              ; preds = %150, %147, %37, %29, %17
  %152 = load ptr, ptr getelementptr inbounds nuw (%struct._zend_phar_globals, ptr @phar_globals, i32 0, i32 20), align 8, !tbaa !126
  %153 = load ptr, ptr %3, align 8, !tbaa !4
  %154 = load ptr, ptr %4, align 8, !tbaa !9
  call void %152(ptr noundef %153, ptr noundef %154)
  store i32 1, ptr %14, align 4
  br label %155

155:                                              ; preds = %151, %147
  call void @llvm.lifetime.end.p0(i64 8, ptr %6) #11
  call void @llvm.lifetime.end.p0(i64 8, ptr %5) #11
  ret void
}